(dp1
I0
S'the'
p2
sI1
S'<s>'
p3
sI2
S'a'
sI3
S'additional'
p4
sI4
S'an'
p5
sI5
S'are'
p6
sI6
S'bad'
p7
sI7
S'biggest'
p8
sI8
S'cake'
p9
sI9
S'coke'
p10
sI10
S'do'
p11
sI11
S'example'
p12
sI12
S'examples'
p13
sI13
S'good'
p14
sI14
S'i'
sI15
S'in'
p15
sI16
S'is'
p16
sI17
S'jobs'
p17
sI18
S'like'
p18
sI19
S'make'
p19
sI20
S'monster'
p20
sI21
S'nessy'
p21
sI22
S'not'
p22
sI23
S'now'
p23
sI24
S'of'
p24
sI25
S'ski'
p25
sI26
S'soda'
p26
sI27
S'sprite'
p27
sI28
S'this'
p28
sI29
S'to'
p29
sI30
S'today'
p30
sI31
S'type'
p31
sI32
S'unemployment'
p32
sI33
S'up'
p33
sI34
S'wants'
p34
sI35
S'war'
p35
sI36
S'what'
p36
sI37
S'who'
p37
sI-2
S'</s>'
p38
sI-1
S'<s>'
p39
s.