(dp1
VPRP$
p2
I16
sS'VBG'
p3
I23
sVVBD
p4
I22
sVVBN
p5
I24
sVVBP
p6
I25
sVWDT
p7
I27
sVJJ
p8
I8
sVWP
p9
I28
sVVBZ
p10
I26
sVDT
p11
I5
sVRP
p12
I19
sS'NN'
p13
I12
sV,
I0
sV.
I1
sVTO
p14
I20
sVPRP
p15
I15
sVRB
p16
I17
sV:
I2
sVNNS
p17
I14
sVNNP
p18
I13
sVVB
p19
I21
sVWRB
p20
I29
sVCC
p21
I3
sVRBR
p22
I18
sVCD
p23
I4
sVEX
p24
I6
sVIN
p25
I7
sVMD
p26
I11
sVJJS
p27
I10
sVJJR
p28
I9
s.