(dp1
VPRP$
p2
I17
sS'VBG'
p3
I24
sVVBD
p4
I23
sVVBN
p5
I25
sVVBP
p6
I26
sVWDT
p7
I28
sVJJ
p8
I8
sVWP
p9
I29
sVVBZ
p10
I27
sVDT
p11
I5
sVRP
p12
I20
sS'NN'
p13
I12
sV,
I0
sV.
I1
sVTO
p14
I21
sVPRP
p15
I16
sVRB
p16
I18
sV:
I2
sVNNS
p17
I14
sVNNP
p18
I13
sVVB
p19
I22
sVWRB
p20
I30
sVCC
p21
I3
sVPDT
p22
I15
sVRBR
p23
I19
sVCD
p24
I4
sVEX
p25
I6
sVIN
p26
I7
sVMD
p27
I11
sVJJS
p28
I10
sVJJR
p29
I9
s.