(dp1
VPRP$
p2
I19
sVVBG
p3
I25
sVVBD
p4
I24
sV``
p5
I32
sVVBN
p6
I26
sV,
I1
sV''
p7
I0
sVVBP
p8
I27
sVWDT
p9
I29
sVJJ
p10
I9
sVWP
p11
I30
sVVBZ
p12
I28
sVDT
p13
I6
sVRP
p14
I21
sS'NN'
p15
I13
sVPOS
p16
I17
sV.
I2
sVTO
p17
I22
sVPRP
p18
I18
sVRB
p19
I20
sV:
I3
sS'NNS'
p20
I15
sVNNP
p21
I14
sVVB
p22
I23
sVWRB
p23
I31
sVCC
p24
I4
sVPDT
p25
I16
sVCD
p26
I5
sVEX
p27
I7
sVIN
p28
I8
sVMD
p29
I12
sVJJS
p30
I11
sVJJR
p31
I10
s.