(lp1
(dp2
S'lengths'
p3
(lp4
I3
aI7
aI4
asS'tags'
p5
(lp6
VIN
p7
aVDT
p8
aVJJ
p9
aVDT
p10
aVNN
p11
aVIN
p12
aS'NN'
p13
aVCC
p14
ag13
ag13
aVDT
p15
aVJJ
p16
aVNN
p17
ag13
asa(dp18
g3
(lp19
I5
aI6
aI5
asg5
(lp20
VRB
p21
aVJJ
p22
aVPRP
p23
aVVBZ
p24
aVRB
p25
aVDT
p26
aVDT
p27
ag13
ag24
aVVBN
p28
aVJJ
p29
aVTO
p30
ag8
aVVBP
p31
ag13
ag13
asa(dp32
g3
(lp33
I4
aI3
aI3
asg5
(lp34
VIN
p35
aVVBZ
p36
aVVBP
p37
aVVBG
p38
aVNNS
p39
ag37
aVRB
p40
ag38
aVPRP$
p41
aVJJ
p42
asa(dp43
g3
(lp44
I4
aI8
aI3
asg5
(lp45
VDT
p46
aVNNS
p47
ag37
ag38
ag10
ag13
aVVBZ
p48
ag37
aVRB
p49
aVIN
p50
aVNN
p51
ag13
aVDT
p52
ag13
aVNN
p53
asa(dp54
g3
(lp55
I4
aI5
aI4
asg5
(lp56
g15
aVJJ
p57
aVNN
p58
aVNNP
p59
aVVBZ
p60
ag38
aVVBN
p61
aVIN
p62
ag8
aVNNP
p63
ag12
ag13
aVNN
p64
asa(dp65
g3
(lp66
I4
aI7
aI5
asg5
(lp67
VIN
p68
aVPRP$
p69
aVNNP
p70
ag13
ag13
ag49
ag8
aVJJ
p71
aVNNS
p72
ag12
ag13
aVIN
p73
ag69
aVJJ
p74
aVJJ
p75
ag13
asa(dp76
g3
(lp77
I3
aI5
aI5
asg5
(lp78
g10
aVVBD
p79
aVVBZ
p80
ag38
aVPRP
p81
aVRP
p82
ag58
ag13
aVIN
p83
aVJJ
p84
aVNNS
p85
aVVBP
p86
aVIN
p87
asa(dp88
g3
(lp89
I3
aI5
aI3
asg5
(lp90
g38
ag27
aVNN
p91
aVNNP
p92
aVJJ
p93
aVNN
p94
aVVBZ
p95
aVJJ
p96
aVDT
p97
ag13
aVNN
p98
asa(dp99
g3
(lp100
I4
aI4
aI4
asg5
(lp101
g38
aVIN
p102
ag58
ag13
aVCD
p103
aVVBN
p104
ag13
aVNNS
p105
ag41
aVNNS
p106
aVIN
p107
aVNN
p108
asa(dp109
g3
(lp110
I3
aI5
aI4
asg5
(lp111
VNNP
p112
aS'NNS'
p113
ag38
aVNNS
p114
aVIN
p115
ag8
aVJJ
p116
aVNN
p117
ag7
ag8
ag13
aVNN
p118
asa(dp119
g3
(lp120
I5
aI4
aI4
asg5
(lp121
g15
aVNN
p122
ag12
ag58
ag13
ag38
aVIN
p123
ag38
aVNNS
p124
ag72
ag8
aVVBD
p125
ag13
asa(dp126
g3
(lp127
I4
aI7
aI3
asg5
(lp128
VDT
p129
ag117
ag13
ag13
aVPRP$
p130
aVNN
p131
ag79
ag13
aVPRP$
p132
aS'VBG'
p133
ag13
ag38
ag8
aVNNP
p134
asa(dp135
g3
(lp136
I4
aI5
aI5
asg5
(lp137
g15
ag75
aVIN
p138
ag38
ag13
ag8
aVNN
p139
ag12
aVVB
p140
ag7
ag27
ag13
ag58
aVJJ
p141
asa(dp142
g3
(lp143
I4
aI5
aI3
asg5
(lp144
g35
ag38
ag27
aVJJ
p145
aVDT
p146
ag69
ag36
ag37
ag38
ag15
ag38
ag13
asa(dp147
g3
(lp148
I4
aI5
aI5
asg5
(lp149
VIN
p150
ag8
ag38
ag13
ag15
ag13
aVVBZ
p151
ag8
aVNN
p152
ag68
ag8
ag13
ag13
aVNN
p153
asa(dp154
g3
(lp155
I4
aI5
aI3
asg5
(lp156
g7
ag27
ag17
ag13
ag13
aVDT
p157
aVJJ
p158
aVNNP
p159
aVNN
p160
ag15
ag38
aVNN
p161
asa(dp162
g3
(lp163
I2
aI7
aI5
asg5
(lp164
g150
aVNN
p165
ag15
aVRB
p166
ag13
aVNNS
p167
aVPRP$
p168
ag13
ag13
ag10
aVNN
p169
ag12
ag58
ag13
asa(dp170
g3
(lp171
I4
aI5
aI3
asg5
(lp172
VRB
p173
aVRB
p174
ag12
ag13
ag30
aVVB
p175
aVPRP
p176
ag86
ag40
aVIN
p177
aVJJ
p178
aVNNS
p179
asa(dp180
g3
(lp181
I3
aI3
aI4
asg5
(lp182
g10
aVJJ
p183
aVNN
p184
aVNNS
p185
ag27
ag113
ag30
ag8
aVNN
p186
aVJJ
p187
asa(dp188
g3
(lp189
I5
aI4
aI3
asg5
(lp190
g10
ag13
ag24
aVRB
p191
aVRB
p192
ag26
aVRB
p193
ag13
ag36
ag13
aVRB
p194
aVJJ
p195
asa(dp196
g3
(lp197
I3
aI4
aI3
asg5
(lp198
g10
ag38
aVVB
p199
ag146
aVVBN
p200
aVIN
p201
ag13
ag73
aVDT
p202
ag13
asa(dp203
g3
(lp204
I3
aI4
aI4
asg5
(lp205
g52
ag158
aVVBN
p206
ag52
ag200
ag187
aVNN
p207
ag7
aVJJ
p208
ag108
ag13
asa(dp209
g3
(lp210
I4
aI8
aI3
asg5
(lp211
g146
aVNN
p212
aVPRP
p213
ag36
ag10
ag13
aVVBZ
p214
aVVBN
p215
ag14
ag176
aVMD
p216
ag25
ag13
aVPRP$
p217
ag38
asa(dp218
g3
(lp219
I4
aI5
aI4
asg5
(lp220
g7
ag97
ag200
ag13
aVCD
p221
aVJJR
p222
ag108
aVVBZ
p223
aVJJ
p224
aVPRP$
p225
aVJJ
p226
ag13
ag13
asa(dp227
g3
(lp228
I3
aI6
aI4
asg5
(lp229
VDT
p230
ag13
ag53
ag60
aVJJ
p231
ag12
ag157
ag158
ag13
aVCC
p232
aVCD
p233
ag158
ag13
asa(dp234
g3
(lp235
I5
aI6
aI5
asg5
(lp236
VIN
p237
aVCD
p238
aVJJ
p239
ag13
aVNNS
p240
ag15
ag13
ag201
ag8
aVNNP
p241
ag35
ag7
ag157
aVJJ
p242
ag13
ag13
asa(dp243
g3
(lp244
I5
aI5
aI3
asg5
(lp245
g7
ag8
aVNN
p246
ag58
ag13
ag52
ag242
aVNN
p247
ag24
ag38
ag13
ag8
aVNN
p248
asa(dp249
g3
(lp250
I4
aI4
aI5
asg5
(lp251
g15
ag13
ag124
ag13
aVIN
p252
ag157
ag13
aVRB
p253
ag232
aVVBZ
p254
ag8
ag31
ag13
asa(dp255
g3
(lp256
I4
aI6
aI4
asg5
(lp257
VIN
p258
ag69
aVNN
p259
ag113
ag92
ag58
ag240
ag13
aVJJ
p260
aVRB
p261
ag232
ag27
ag13
aVNNS
p262
asa(dp263
g3
(lp264
I4
aI3
aI4
asg5
(lp265
VNN
p266
ag13
ag115
aVNN
p267
ag38
ag38
aVNNS
p268
ag150
ag8
ag13
aVNN
p269
asa(dp270
g3
(lp271
I4
aI6
aI4
asg5
(lp272
g38
ag102
ag27
ag13
ag15
aVNN
p273
ag113
aVPRP$
p274
aVJJ
p275
ag11
aS'RB'
p276
aVTO
p277
ag27
ag212
asa(dp278
g3
(lp279
I5
aI6
aI4
asg5
(lp280
g10
ag13
ag13
aVIN
p281
ag29
ag26
aVPRP
p282
aVVBD
p283
ag274
ag194
ag13
aVIN
p284
ag107
ag27
ag85
asa(dp285
g3
(lp286
I4
aI6
aI5
asg5
(lp287
g15
ag38
aVNN
p288
ag13
ag15
ag13
ag240
ag107
ag27
ag267
ag232
aVNNS
p289
ag115
ag27
aVNNS
p290
asa(dp291
g3
(lp292
I4
aI5
aI4
asg5
(lp293
g7
ag157
ag242
aVVBN
p294
ag10
ag74
aVNNS
p295
ag12
ag185
ag13
ag38
ag27
ag13
asa(dp296
g3
(lp297
I4
aI6
aI4
asg5
(lp298
g252
ag27
aVNN
p299
aVNN
p300
ag113
ag37
ag38
ag8
ag75
aVVB
p301
ag7
ag27
ag53
ag13
asa(dp302
g3
(lp303
I3
aI5
aI3
asg5
(lp304
g15
aVVBN
p305
ag13
ag113
aVIN
p306
ag107
ag27
aVNNP
p307
ag38
ag27
ag124
asa(dp308
g3
(lp309
I2
aI6
aI5
asg5
(lp310
VRB
p311
ag38
ag92
aVJJ
p312
aVNNS
p313
ag12
ag17
ag13
ag68
ag157
ag242
ag13
ag13
asa(dp314
g3
(lp315
I4
aI5
aI3
asg5
(lp316
g38
aVIN
p317
ag27
aVNN
p318
aVIN
p319
ag27
aVVBN
p320
ag13
aVNN
p321
ag15
ag187
aVNN
p322
asa(dp323
g3
(lp324
I2
aI7
aI4
asg5
(lp325
g15
ag247
ag113
ag8
ag13
ag12
ag108
aVJJ
p326
ag13
ag10
aVVB
p327
ag58
ag13
asa(dp328
g3
(lp329
I4
aI7
aI4
asg5
(lp330
g7
ag27
ag38
ag13
ag15
aVJJ
p331
ag13
aVVBZ
p332
aVRP
p333
ag274
aVNNS
p334
aVIN
p335
aVPRP
p336
ag37
ag187
asa(dp337
g3
(lp338
I5
aI6
aI2
asg5
(lp339
g15
ag58
ag13
ag281
aVJJ
p340
ag26
ag176
aVVBP
p341
ag176
ag37
ag38
ag13
ag117
asa(dp342
g3
(lp343
I3
aI5
aI4
asg5
(lp344
g10
ag38
ag13
ag319
ag8
aVJJ
p345
ag13
ag13
ag113
aVIN
p346
ag27
ag13
asa(dp347
g3
(lp348
I4
aI7
aI5
asg5
(lp349
g73
ag27
aVNNP
p350
ag13
ag30
ag27
ag13
ag12
ag27
ag42
ag13
ag15
ag13
ag12
ag36
ag13
asa(dp351
g3
(lp352
I5
aI6
aI4
asg5
(lp353
g225
ag22
ag14
ag13
ag106
ag13
aVIN
p354
aVJJ
p355
aVIN
p356
ag27
ag13
ag68
ag97
ag13
ag267
asa(dp357
g3
(lp358
I4
aI5
aI4
asg5
(lp359
VRB
p360
ag12
aVJJ
p361
ag39
ag38
ag201
ag313
ag12
ag13
ag7
ag27
ag53
ag13
asa(dp362
g3
(lp363
I4
aI6
aI5
asg5
(lp364
g38
aVDT
p365
ag13
ag74
ag92
ag22
ag13
ag25
aVVBZ
p366
aVRB
p367
ag68
ag8
aS'VBD'
p368
ag12
ag240
asa(dp369
g3
(lp370
I4
aI5
aI5
asg5
(lp371
g73
aVIN
p372
ag27
ag13
ag13
ag27
ag361
ag108
aVNNS
p373
aVNN
p374
aVNNS
p375
ag12
ag8
aVNN
p376
asa(dp377
g3
(lp378
I3
aI6
aI4
asg5
(lp379
g15
aVVBD
p380
ag117
ag167
ag107
ag340
ag22
ag13
ag108
ag130
ag113
ag49
aVJJ
p381
asa(dp382
g3
(lp383
I4
aI5
aI5
asg5
(lp384
g194
aVDT
p385
ag58
ag13
aVRB
p386
aVJJ
p387
ag14
aVRB
p388
aVJJ
p389
ag13
aVVB
p390
aVRP
p391
ag8
ag13
asa(dp392
g3
(lp393
I4
aI5
aI4
asg5
(lp394
g7
ag8
ag13
ag345
ag38
aVRP
p395
ag80
ag12
aVNNP
p396
ag15
ag380
ag13
ag13
asa(dp397
g3
(lp398
I5
aI6
aI3
asg5
(lp399
VVB
p400
aVRP
p401
ag176
aVVB
p402
aVJJ
p403
ag213
ag37
aVNN
p404
aVNN
p405
ag217
ag321
ag232
aVNN
p406
aVIN
p407
asa(dp408
g3
(lp409
I3
aI6
aI3
asg5
(lp410
g13
ag13
ag113
aVRB
p411
aVIN
p412
ag8
aVNN
p413
aVRB
p414
aVVBD
p415
ag15
aVRB
p416
aVNN
p417
asa(dp418
g3
(lp419
I4
aI4
aI3
asg5
(lp420
VJJ
p421
aVIN
p422
ag27
ag13
ag68
aVWDT
p423
ag295
ag13
ag13
ag38
aVJJ
p424
asa(dp425
g3
(lp426
I3
aI6
aI4
asg5
(lp427
g38
ag13
ag13
ag15
ag13
ag114
aVRP
p428
ag13
aVNNS
p429
ag237
ag8
aVJJ
p430
aVNN
p431
asa(dp432
g3
(lp433
I4
aI6
aI3
asg5
(lp434
g15
aVJJ
p435
ag13
aVNN
p436
ag60
ag38
ag79
ag62
ag8
ag13
ag177
ag38
ag413
asa(dp437
g3
(lp438
I4
aI5
aI3
asg5
(lp439
g38
ag395
ag132
ag413
ag232
aVNN
p440
ag132
aVJJ
p441
ag38
ag221
ag194
aVVB
p442
asa(dp443
g3
(lp444
I5
aI6
aI4
asg5
(lp445
g73
ag27
ag239
ag49
ag114
aVRB
p446
ag8
ag13
ag12
ag13
ag13
ag30
ag290
ag27
ag13
asa(dp447
g3
(lp448
I3
aI6
aI4
asg5
(lp449
g38
ag80
ag276
ag150
ag233
aVVB
p450
ag12
ag84
aVNN
p451
ag7
ag8
aVNN
p452
ag13
asa(dp453
g3
(lp454
I5
aI7
aI4
asg5
(lp455
g13
aVJJ
p456
aVRB
p457
ag97
aVNN
p458
aVRB
p459
aVVB
p460
aVNN
p461
aVWRB
p462
ag176
aVMD
p463
aVVB
p464
ag15
aVNNP
p465
ag13
ag38
asa(dp466
g3
(lp467
I5
aI5
aI4
asg5
(lp468
g258
ag27
ag13
aVVBZ
p469
aVIN
p470
ag8
ag84
aVNNP
p471
aVNNS
p472
ag381
ag232
aVNN
p473
ag185
aVIN
p474
asa(dp475
g3
(lp476
I3
aI4
aI4
asg5
(lp477
g10
ag247
ag185
ag124
aVRB
p478
aVNNS
p479
aVJJR
p480
ag13
ag27
ag13
ag267
asa(dp481
g3
(lp482
I3
aI4
aI3
asg5
(lp483
g10
aVNN
p484
aVNN
p485
aVDT
p486
ag13
ag24
aVVBN
p487
aVIN
p488
aVJJ
p489
ag254
asa(dp490
g3
(lp491
I3
aI4
aI3
asg5
(lp492
g15
ag38
ag117
ag185
ag8
aVJJ
p493
ag117
aVRB
p494
ag277
ag417
asa(dp495
g3
(lp496
I3
aI5
aI4
asg5
(lp497
g38
ag132
ag13
ag92
ag117
ag167
ag8
aVJJ
p498
ag459
aVVBZ
p499
ag132
aVNNS
p500
asa(dp501
g3
(lp502
I5
aI5
aI4
asg5
(lp503
g10
ag13
ag12
ag8
ag13
ag68
ag8
ag355
ag17
ag118
ag113
ag8
ag195
ag199
asa(dp504
g3
(lp505
I2
aI3
aI4
asg5
(lp506
VCD
p507
aVNNP
p508
ag380
ag412
ag202
ag7
ag27
ag13
ag451
asa(dp509
g3
(lp510
I5
aI4
aI4
asg5
(lp511
g13
ag107
ag27
ag13
ag13
ag15
ag139
ag113
aVRB
p512
ag7
ag157
aVNNP
p513
ag108
asa(dp514
g3
(lp515
I3
aI5
aI4
asg5
(lp516
g507
ag13
ag53
ag15
ag259
aVVBZ
p517
ag8
aVNN
p518
ag232
ag124
ag317
aVIN
p519
asa(dp520
g3
(lp521
I3
aI6
aI3
asg5
(lp522
g35
aVPRP
p523
ag124
ag15
ag58
ag13
aVNNS
p524
ag168
aVNNS
p525
ag237
aVCD
p526
ag72
asa(dp527
g3
(lp528
I4
aI6
aI4
asg5
(lp529
g38
aVIN
p530
ag27
aVNNS
p531
ag15
ag13
ag214
ag8
ag13
ag13
ag38
ag530
ag8
ag13
asa(dp532
g3
(lp533
I3
aI6
aI3
asg5
(lp534
g158
ag13
ag13
ag10
ag260
aVVB
p535
ag295
aVVBP
p536
aVVBN
p537
ag38
ag41
aVNN
p538
asa(dp539
g3
(lp540
I3
aI5
aI3
asg5
(lp541
g177
ag8
aVJJ
p542
ag72
ag12
ag13
ag184
ag113
ag68
aVNNP
p543
ag429
asa(dp544
g3
(lp545
I4
aI5
aI4
asg5
(lp546
g10
ag113
ag12
ag429
ag38
ag277
ag69
ag13
aVNN
p547
ag7
ag27
aVJJ
p548
ag531
asa(dp549
g3
(lp550
I3
aI6
aI4
asg5
(lp551
g10
ag241
aVNN
p552
ag15
aVIN
p553
ag24
aVNN
p554
ag168
ag113
ag259
aVIN
p555
ag336
ag37
asa(dp556
g3
(lp557
I3
aI5
aI4
asg5
(lp558
g73
ag27
ag186
ag146
ag27
ag38
ag179
aVJJ
p559
ag47
ag8
ag58
ag13
asa(dp560
g3
(lp561
I3
aI6
aI4
asg5
(lp562
g15
ag38
ag117
aVNNS
p563
ag317
ag8
ag187
ag13
ag13
ag13
aVVBZ
p564
ag12
aVNN
p565
asa(dp566
g3
(lp567
I5
aI6
aI4
asg5
(lp568
g10
aVJJ
p569
ag13
ag12
ag58
ag10
ag355
aVVBZ
p570
aVPRP$
p571
ag13
ag13
ag7
ag8
aVJJ
p572
aVNN
p573
asa(dp574
g3
(lp575
I3
aI6
aI3
asg5
(lp576
g52
ag158
ag553
ag38
ag8
ag74
ag17
ag201
ag23
ag15
ag38
ag199
asa(dp577
g3
(lp578
I3
aI4
aI3
asg5
(lp579
g13
ag27
ag39
aVRB
p580
ag27
ag13
ag13
ag113
ag8
aVNN
p581
asa(dp582
g3
(lp583
I3
aI7
aI5
asg5
(lp584
g68
ag8
aVNNP
p585
ag232
aVIN
p586
ag27
aVVBZ
p587
ag12
ag13
ag13
ag8
ag58
ag13
ag115
ag13
asa(dp588
g3
(lp589
I3
aI5
aI3
asg5
(lp590
g10
ag17
aVNN
p591
ag524
aVNNP
p592
ag107
ag27
ag85
ag38
aVPRP
p593
aVJJR
p594
asa(dp595
g3
(lp596
I4
aI6
aI3
asg5
(lp597
g7
ag27
ag38
ag13
aVDT
p598
ag13
ag13
ag24
ag38
ag29
ag30
ag38
ag313
asa(dp599
g3
(lp600
I5
aI5
aI4
asg5
(lp601
g15
ag13
ag13
aVVBZ
p602
ag333
ag15
aVJJ
p603
ag14
ag28
aVIN
p604
aVIN
p605
ag423
ag277
aVVB
p606
asa(dp607
g3
(lp608
I3
aI5
aI5
asg5
(lp609
g68
ag108
ag500
ag10
ag442
aVVBZ
p610
aVVB
p611
ag500
ag319
ag27
aVNNP
p612
ag12
ag113
asa(dp613
g3
(lp614
I3
aI5
aI5
asg5
(lp615
g52
ag290
ag13
ag38
ag317
ag8
ag327
ag11
ag73
ag27
ag267
ag12
ag113
asa(dp616
g3
(lp617
I4
aI5
aI2
asg5
(lp618
g15
ag13
aVJJ
p619
ag247
ag72
ag346
ag8
aVNNP
p620
aVVB
p621
ag38
aVVB
p622
asa(dp623
g3
(lp624
I3
aI6
aI4
asg5
(lp625
g15
aVNNP
p626
ag518
ag113
ag107
ag27
ag13
ag12
ag267
aVWRB
p627
ag194
ag23
ag24
asa(dp628
g3
(lp629
I4
aI5
aI4
asg5
(lp630
g35
ag38
ag27
aVDT
p631
ag15
aVJJ
p632
ag13
aVRB
p633
aVIN
p634
ag30
ag86
aVIN
p635
ag254
asa(dp636
g3
(lp637
I4
aI6
aI3
asg5
(lp638
VNNP
p639
aVRB
p640
aVRB
p641
ag13
ag92
aVNNP
p642
ag313
ag14
ag105
ag23
ag459
ag592
ag261
asa(dp643
g3
(lp644
I4
aI6
aI4
asg5
(lp645
g15
ag195
ag58
ag13
ag15
ag13
ag499
ag132
aVJJ
p646
ag13
ag232
aVVBZ
p647
ag8
ag13
asa(dp648
g3
(lp649
I6
aI5
aI5
asg5
(lp650
g10
ag430
aVNN
p651
ag107
ag27
ag13
ag113
aVCC
p652
ag8
ag166
aVNNP
p653
aVWRB
p654
aVPRP
p655
aVVBD
p656
ag277
ag23
asa(dp657
g3
(lp658
I4
aI6
aI4
asg5
(lp659
VIN
p660
ag8
ag38
ag13
ag113
ag13
ag530
ag13
ag277
ag13
ag7
ag8
ag38
ag58
asa(dp661
g3
(lp662
I4
aI5
aI4
asg5
(lp663
g258
ag27
aVNNP
p664
ag13
ag60
aVJJ
p665
ag428
ag274
aVJJ
p666
ag13
ag80
ag277
aVVB
p667
asa(dp668
g3
(lp669
I3
aI6
aI4
asg5
(lp670
g225
aVNN
p671
ag36
aVIN
p672
ag69
ag113
ag38
ag23
ag13
ag15
aVJJ
p673
ag58
ag13
asa(dp674
g3
(lp675
I3
aI4
aI3
asg5
(lp676
g38
ag14
ag38
aVJJ
p677
ag500
ag12
ag424
ag38
ag8
aVNNP
p678
asa(dp679
g3
(lp680
I2
aI5
aI5
asg5
(lp681
g38
aVRB
p682
ag92
ag273
ag295
ag27
ag254
ag15
aVNN
p683
ag317
ag274
aVNN
p684
asa(dp685
g3
(lp686
I3
aI3
aI4
asg5
(lp687
g15
ag553
ag535
ag52
aVNN
p688
ag38
ag563
ag317
ag326
ag108
asa.