(dp1
Vall
p2
I6
sVmoments
p3
I93
sVover
p4
I112
sVwayside
p5
I180
sVworld
p6
I197
sVcarefully
p7
I28
sVearth
p8
I47
sVrewarded
p9
I124
sVstill
p10
I148
sVits
p11
I75
sVto
p12
I165
sVchanced
p13
I31
sVone
p14
I109
sVsome
p15
I140
sVnow
p16
I104
sVpainfully
p17
I114
sVmother
p18
I96
sVhad
p19
I62
sV,
I0
sVday
p20
I38
sVbrighter
p21
I22
sVonly
p22
I110
sVeasy
p23
I48
sVcaverned
p24
I30
sVspot
p25
I145
sVlake
p26
I76
sVoverhanging
p27
I113
sVthem
p28
I159
sVwished
p29
I192
sVgarden
p30
I57
sVworthier
p31
I198
sVevery
p32
I49
sVbreast
p33
I21
sVnot
p34
I101
sVduring
p35
I44
sVplowshare
p36
I118
sVhollow
p37
I67
sVcontinued
p38
I34
sVhim
p39
I66
sVdown
p40
I42
sVspider-hunting
p41
I144
sVcheerily
p42
I32
sVnotes
p43
I102
sVmorning
p44
I95
sVobjectionable
p45
I105
sVfilled
p46
I52
sVthough
p47
I161
sVsmall
p48
I138
sVriver
p49
I125
sVcranny
p50
I37
sVoften
p51
I107
sVwood-thrush
p52
I195
sVspring
p53
I146
sVstooping
p54
I149
sVmidsummer
p55
I90
sVlibrary
p56
I79
sVsee
p57
I132
sVbeetle
p58
I17
sVrow
p59
I126
sVpeered
p60
I116
sVdooryard
p61
I41
sVaway
p62
I10
sVbeaten
p63
I14
sVmud
p64
I98
sV;
I2
sVground
p65
I61
sV?
I3
sVpreserve
p66
I119
sVbe
p67
I13
sVwho
p68
I188
sVfearless
p69
I50
sVloose
p70
I85
sVbrooks
p71
I23
sVwater
p72
I177
sVslow
p73
I137
sVtramp
p74
I166
sVsing
p75
I135
sVupon
p76
I171
sVby
p77
I25
sVsparrows
p78
I143
sVlast
p79
I77
sVdusty
p80
I45
sVof
p81
I106
sVwherever
p82
I184
sVtimes
p83
I164
sVs
I127
sVtangled
p84
I153
sVor
p85
I111
sVfreshet
p86
I55
sV\u2019
I202
sVsuddenly
p87
I150
sVsweet
p88
I152
sVinto
p89
I72
sVwithin
p90
I194
sVmarked
p91
I88
sVbosom
p92
I20
sVbrought
p93
I24
sVpatience
p94
I115
sVvine
p95
I172
sVlistless
p96
I83
sVlong
p97
I84
sVdirectly
p98
I40
sVsprings
p99
I147
sVblows
p100
I18
sVsinging
p101
I136
sVlulled
p102
I87
sVwren
p103
I200
sVfrom
p104
I56
sVmolded
p105
I92
sVwould
p106
I199
sVtheir
p107
I158
sVthere
p108
I160
sVbeen
p109
I16
sV.
I1
sVfew
p110
I51
sVdrank
p111
I43
sVway
p112
I179
sVtime
p113
I163
sVmaze
p114
I89
sVwas
p115
I176
sVuntil
p116
I170
sVhappy
p117
I63
sVsort
p118
I142
sVthat
p119
I156
sVbecomes
p120
I15
sVsunshine
p121
I151
sVglass
p122
I59
sVthreaded
p123
I162
sVcorner
p124
I36
sVhollowed
p125
I68
sVremoved
p126
I122
sVwith
p127
I193
sVthan
p128
I155
sVcase
p129
I29
sVwide
p130
I189
sVmyself
p131
I100
sVdepressed
p132
I39
sVwork
p133
I196
sVrests
p134
I123
sVwhile
p135
I186
sVcan
p136
I26
sVloves
p137
I86
sVwere
p138
I182
sVwarbled
p139
I174
sVmore
p140
I94
sVmy
p141
I99
sVscatter
p142
I130
sVand
p143
I7
sVcane
p144
I27
sVhoping
p145
I69
sVhears
p146
I65
sVis
p147
I73
sVfoxie
p148
I54
sVit
p149
I74
sVsoothe
p150
I141
sVclamshells
p151
I33
sVas
p152
I8
sVat
p153
I9
sVhave
p154
I64
sVin
p155
I71
sVbones
p156
I19
sVscar
p157
I129
sVsat
p158
I128
sVlie
p159
I80
sVwinter
p160
I191
sVdying
p161
I46
sVconvenient
p162
I35
sVwhen
p163
I183
sVtrowel
p164
I168
sVwalk
p165
I173
sVscooped
p166
I131
sVso
p167
I139
sVyou
p168
I201
sVlily
p169
I82
sVproduct
p170
I120
sVmountain
p171
I97
sVflooded
p172
I53
sVwaters
p173
I178
sVafter
p174
I5
sVreach
p175
I121
sVgifts
p176
I58
sVmodest
p177
I91
sVwhite-throats
p178
I187
sVlay
p179
I78
sVnothing
p180
I103
sVtrills
p181
I167
sVpies
p182
I117
sVglow
p183
I60
sVa
I4
sVtask
p184
I154
sVi
I70
sVlight
p185
I81
sVwell
p186
I181
sVwhich
p187
I185
sVwarm
p188
I175
sVshelter
p189
I134
sVshade
p190
I133
sVaxe
p191
I11
sVbanks
p192
I12
sVthe
p193
I157
sVtypical
p194
I169
sVwind
p195
I190
sVonce
p196
I108
s.