(dp1
Vimagining
p2
I88
sVall
p3
I10
sVmoments
p4
I113
sVindeed
p5
I90
sVearth
p6
I56
sVrewarded
p7
I146
sVfleshless
p8
I65
sVbirds
p9
I28
sVground
p10
I76
sVone
p11
I134
sVsluggish
p12
I158
sVinstance
p13
I91
sV_caw_
p14
I5
sVagile
p15
I8
sVhad
p16
I77
sV,
I1
sVsparkling
p17
I162
sVday
p18
I48
sVbetter
p19
I26
sVto
p20
I174
sVchoose
p21
I40
sVeasy
p22
I57
sVhas
p23
I78
sVgave
p24
I73
sVintimated
p25
I92
sVhis
p26
I85
sVchoicest
p27
I39
sVwhich
p28
I189
sVthan
p29
I167
sVvery
p30
I184
sVthere
p31
I171
sVtrees
p32
I178
sVevery
p33
I60
sVleisurely
p34
I98
sVnot
p35
I126
sVworld
p36
I196
sVnow
p37
I128
sVcontinued
p38
I43
sVhim
p39
I84
sVlike
p40
I101
sVpatience
p41
I139
sVdid
p42
I50
sVcheerily
p43
I37
sVtrills
p44
I179
sVrocks
p45
I149
sVfound
p46
I68
sVriver
p47
I148
sVmeal
p48
I110
sVtypical
p49
I181
sVneighborhood
p50
I120
sVmeadow
p51
I109
sVwood-thrush
p52
I195
sVcrow
p53
I47
sVworthier
p54
I197
sVlibrary
p55
I100
sVurgent
p56
I183
sVsee
p57
I154
sVare
p58
I16
sVbeetle
p59
I25
sVour
p60
I136
sVnests
p61
I122
sVcreatures
p62
I46
sVwhat
p63
I187
sVfor
p64
I66
sVdooryard
p65
I53
sVbeaten
p66
I21
sVits
p67
I95
sVmud
p68
I116
sV;
I3
sVapproach
p69
I15
sVbird
p70
I27
sV?
I4
sVbe
p71
I20
sVfull
p72
I72
sVnature
p73
I119
sVnever
p74
I123
sVhere
p75
I83
sVbrooks
p76
I31
sValthough
p77
I11
sVsing
p78
I157
sVswift
p79
I166
sVby
p80
I34
sVboth
p81
I30
sVrests
p82
I145
sVcountry
p83
I45
sVcould
p84
I44
sVside
p85
I156
sVturn
p86
I180
sVlength
p87
I99
sVor
p88
I135
sVstrangely
p89
I164
sVown
p90
I138
sVwithin
p91
I193
sVfancy
p92
I62
sVlake
p93
I96
sVdown
p94
I54
sVnothing
p95
I127
sVlong
p96
I103
sVbeckon
p97
I22
sVold
p98
I132
sVblows
p99
I29
sVsprings
p100
I163
sVringing
p101
I147
sVnest
p102
I121
sVfrom
p103
I71
sVwould
p104
I198
sVtramp
p105
I176
sVextremely
p106
I61
sVconstantly
p107
I42
sVbeen
p108
I24
sV.
I2
sVtheir
p109
I170
sVof
p110
I130
sVmusic
p111
I117
sVtoo
p112
I175
sVtime
p113
I173
sVpoet
p114
I141
sVwas
p115
I185
sVfriend
p116
I69
sVmore
p117
I114
sVsort
p118
I161
sVhead
p119
I81
sVoffer
p120
I131
sVbecomes
p121
I23
sVcompany
p122
I41
sVbut
p123
I33
sVminnows
p124
I111
sVchild
p125
I38
sVwith
p126
I192
sVeat
p127
I58
sVhe
p128
I80
sVme
p129
I108
sVwide
p130
I191
sVnone
p131
I125
sVpride
p132
I143
sVrugged
p133
I150
sVbuilds
p134
I32
sVdepressed
p135
I49
sVtree
p136
I177
sVcan
p137
I35
sVloves
p138
I104
sVmany
p139
I106
sVmy
p140
I118
sVat
p141
I18
sVand
p142
I14
sVhoping
p143
I86
sVhears
p144
I82
sVditches
p145
I52
sVis
p146
I93
sVam
p147
I12
sVit
p148
I94
sVan
p149
I13
sVsoothe
p150
I160
sVas
p151
I17
sVwoman
p152
I194
sValike
p153
I9
sVhave
p154
I79
sVin
p155
I89
sV\u2019
I201
sVscar
p156
I153
sVyet
p157
I199
sVsat
p158
I152
sV!
I0
sVmountain
p159
I115
sVdying
p160
I55
sVno
p161
I124
sVperhaps
p162
I140
sVodd
p163
I129
sVthat
p164
I168
sVwhen
p165
I188
sVs
I151
sVwho
p166
I190
sVfield
p167
I63
sVforest
p168
I67
sVdigging
p169
I51
sVyou
p170
I200
sVout
p171
I137
sVlily
p172
I102
sVsure
p173
I165
sVthough
p174
I172
sVmay
p175
I107
sVeggs
p176
I59
sVafter
p177
I7
sVreach
p178
I144
sVgifts
p179
I74
sVmodest
p180
I112
sVlay
p181
I97
sVfishes
p182
I64
sVupland
p183
I182
sVfriends
p184
I70
sVgrave
p185
I75
sVman
p186
I105
sVa
I6
sVi
I87
sVwell
p187
I186
sVpoints
p188
I142
sVso
p189
I159
sVshade
p190
I155
sVaxe
p191
I19
sVthe
p192
I169
sVonce
p193
I133
sVcharged
p194
I36
s.