(lp1
(dp2
S'lengths'
p3
(lp4
I3
aI7
aI4
asS'tags'
p5
(lp6
VIN
p7
aVDT
p8
aVJJ
p9
aVDT
p10
aVNN
p11
aVIN
p12
aS'NN'
p13
aVCC
p14
ag13
ag13
aVDT
p15
aVJJ
p16
aVNN
p17
ag13
asa(dp18
g3
(lp19
I5
aI6
aI5
asg5
(lp20
VIN
p21
aVNN
p22
aVPRP
p23
aVVBZ
p24
aVRB
p25
aVDT
p26
aVDT
p27
ag13
ag24
aVVBN
p28
aVRB
p29
aVTO
p30
ag8
aVVBP
p31
ag13
ag13
asa(dp32
g3
(lp33
I4
aI3
aI3
asg5
(lp34
VIN
p35
aVVBZ
p36
aVVBP
p37
aVVBG
p38
aVNNS
p39
ag37
aVRB
p40
ag38
aVPRP$
p41
aVJJ
p42
asa(dp43
g3
(lp44
I4
aI8
aI3
asg5
(lp45
VDT
p46
aVNNS
p47
ag37
ag38
ag10
ag13
aVVBZ
p48
ag37
aVRB
p49
aVIN
p50
aVNN
p51
ag13
aVDT
p52
ag13
aVNN
p53
asa(dp54
g3
(lp55
I4
aI5
aI4
asg5
(lp56
g15
aVJJ
p57
aVNN
p58
aVNNP
p59
aVVBZ
p60
ag38
aVVBN
p61
aVIN
p62
ag8
aVNN
p63
ag12
aVNN
p64
aVNN
p65
asa(dp66
g3
(lp67
I4
aI7
aI5
asg5
(lp68
VIN
p69
aVPRP$
p70
aVNN
p71
ag13
ag13
ag49
ag8
aVJJ
p72
aVNNS
p73
ag12
ag13
aVIN
p74
ag70
aVJJ
p75
aVJJ
p76
ag13
asa(dp77
g3
(lp78
I3
aI5
aI5
asg5
(lp79
g10
aVVBD
p80
aVNNS
p81
ag38
aVPRP
p82
aVRP
p83
ag58
ag13
aVIN
p84
aVJJ
p85
aVNNS
p86
aVVBP
p87
aVIN
p88
asa(dp89
g3
(lp90
I3
aI5
aI3
asg5
(lp91
g38
ag27
aVNN
p92
aVNNP
p93
aVJJ
p94
aVNN
p95
aVVBZ
p96
aVJJ
p97
aVDT
p98
ag13
aVNN
p99
asa(dp100
g3
(lp101
I4
aI4
aI4
asg5
(lp102
g38
aVIN
p103
ag58
ag13
aVCD
p104
aVVBN
p105
ag13
aVNNS
p106
ag41
aVNNS
p107
aVIN
p108
aVNN
p109
asa(dp110
g3
(lp111
I3
aI5
aI4
asg5
(lp112
VNNP
p113
aS'NNS'
p114
ag38
aVNNS
p115
aVIN
p116
ag8
aVJJ
p117
aVNN
p118
ag7
ag8
ag13
aVNN
p119
asa(dp120
g3
(lp121
I5
aI4
aI4
asg5
(lp122
g15
aVNN
p123
ag12
ag58
ag13
ag38
aVIN
p124
ag38
aVNNS
p125
ag73
ag8
aVVBD
p126
ag13
asa(dp127
g3
(lp128
I4
aI7
aI3
asg5
(lp129
VDT
p130
ag118
ag13
ag13
aVPRP$
p131
aVNN
p132
ag80
ag13
aVPRP$
p133
aS'VBG'
p134
ag13
ag38
ag8
aVNNP
p135
asa(dp136
g3
(lp137
I4
aI5
aI5
asg5
(lp138
g15
ag76
aVIN
p139
ag38
ag13
ag8
aVNN
p140
ag12
aVVB
p141
ag7
ag27
ag13
ag58
aVJJ
p142
asa(dp143
g3
(lp144
I4
aI5
aI3
asg5
(lp145
g35
ag38
ag27
aVJJ
p146
aVDT
p147
ag70
ag36
ag37
ag38
ag15
ag38
ag13
asa(dp148
g3
(lp149
I4
aI5
aI5
asg5
(lp150
VIN
p151
ag8
ag38
ag13
ag15
ag13
aVVBZ
p152
ag8
aVNN
p153
ag69
ag8
ag13
ag13
aVNN
p154
asa(dp155
g3
(lp156
I4
aI5
aI3
asg5
(lp157
g7
ag27
ag17
ag13
ag13
aVDT
p158
aVJJ
p159
aVNNP
p160
aVNN
p161
ag15
ag38
aVNN
p162
asa(dp163
g3
(lp164
I2
aI7
aI5
asg5
(lp165
g151
aVNN
p166
ag15
aVRB
p167
ag13
aVNNS
p168
aVPRP$
p169
ag13
ag13
ag10
aVNN
p170
ag12
ag58
ag13
asa(dp171
g3
(lp172
I4
aI5
aI3
asg5
(lp173
VRB
p174
aVRB
p175
ag12
ag13
ag30
aVVB
p176
aVPRP
p177
ag87
ag40
aVIN
p178
aVJJ
p179
aVNNS
p180
asa(dp181
g3
(lp182
I3
aI3
aI4
asg5
(lp183
g10
aVJJ
p184
aVNN
p185
aVNNS
p186
ag27
ag114
ag30
ag8
aVNN
p187
aVJJ
p188
asa(dp189
g3
(lp190
I5
aI4
aI3
asg5
(lp191
g10
ag13
ag24
aVRB
p192
aVRB
p193
ag26
aVRB
p194
ag13
ag36
ag13
aVRB
p195
aVJJ
p196
asa(dp197
g3
(lp198
I3
aI4
aI3
asg5
(lp199
g10
ag38
aVVB
p200
ag147
aVVBN
p201
aVIN
p202
ag13
ag74
aVDT
p203
ag13
asa(dp204
g3
(lp205
I3
aI4
aI4
asg5
(lp206
g52
ag159
aVVBN
p207
ag52
ag201
ag188
aVNN
p208
ag7
aVJJ
p209
ag109
ag13
asa(dp210
g3
(lp211
I4
aI8
aI3
asg5
(lp212
VDT
p213
aVNN
p214
aVPRP
p215
ag36
ag10
ag13
aVVBZ
p216
aVVBN
p217
ag14
ag177
aVMD
p218
ag25
ag13
aVPRP$
p219
ag38
asa(dp220
g3
(lp221
I4
aI5
aI4
asg5
(lp222
g7
ag98
ag201
ag13
aVCD
p223
aVJJR
p224
ag109
aVVBZ
p225
aVJJ
p226
aVPRP$
p227
aVJJ
p228
ag13
ag13
asa(dp229
g3
(lp230
I3
aI6
aI4
asg5
(lp231
VDT
p232
ag13
ag53
ag60
aVJJ
p233
ag12
ag158
ag159
ag13
aVCC
p234
aVCD
p235
ag159
ag13
asa(dp236
g3
(lp237
I5
aI6
aI5
asg5
(lp238
VIN
p239
aVCD
p240
aVJJ
p241
ag13
aVNNS
p242
ag15
ag13
ag202
ag8
aVNNP
p243
ag35
ag7
ag158
aVJJ
p244
ag13
ag13
asa(dp245
g3
(lp246
I5
aI5
aI3
asg5
(lp247
g7
ag8
aVNN
p248
ag58
ag13
ag52
ag244
aVNN
p249
ag24
ag38
ag13
ag8
aVNN
p250
asa(dp251
g3
(lp252
I4
aI4
aI5
asg5
(lp253
g15
ag13
ag125
ag13
aVIN
p254
ag158
ag13
aVNN
p255
ag234
aVVBZ
p256
ag8
ag31
ag13
asa(dp257
g3
(lp258
I4
aI6
aI4
asg5
(lp259
VIN
p260
ag70
aVNN
p261
ag114
ag93
ag58
ag242
ag13
aVJJ
p262
aVRB
p263
ag234
ag27
ag13
aVNNS
p264
asa(dp265
g3
(lp266
I4
aI3
aI4
asg5
(lp267
VNN
p268
ag13
ag116
aVNN
p269
ag38
ag38
aVNNS
p270
ag151
ag8
ag13
aVNN
p271
asa(dp272
g3
(lp273
I4
aI6
aI4
asg5
(lp274
g38
ag103
ag27
ag13
ag15
aVNN
p275
ag114
aVPRP$
p276
aVJJ
p277
ag11
aS'RB'
p278
aVTO
p279
ag27
ag214
asa(dp280
g3
(lp281
I5
aI6
aI4
asg5
(lp282
g10
ag13
ag13
aVIN
p283
ag29
ag26
aVPRP
p284
aVVBD
p285
ag276
ag195
ag13
aVIN
p286
ag108
ag27
ag86
asa(dp287
g3
(lp288
I4
aI6
aI5
asg5
(lp289
g15
ag38
aVNN
p290
ag13
ag15
ag13
ag242
ag108
ag27
ag269
ag234
aVNNS
p291
ag116
ag27
aVNNS
p292
asa(dp293
g3
(lp294
I4
aI5
aI4
asg5
(lp295
g7
ag158
ag244
aVVBN
p296
ag10
ag75
aVNNS
p297
ag12
ag186
ag13
ag38
ag27
ag13
asa(dp298
g3
(lp299
I4
aI6
aI4
asg5
(lp300
g254
ag27
aVNN
p301
aVNN
p302
ag114
ag37
ag38
ag8
ag76
aVVB
p303
ag7
ag27
ag53
ag13
asa(dp304
g3
(lp305
I3
aI5
aI3
asg5
(lp306
g15
aVVBN
p307
ag13
ag114
aVIN
p308
ag108
ag27
aVNNP
p309
ag38
ag27
ag125
asa(dp310
g3
(lp311
I2
aI6
aI5
asg5
(lp312
VRB
p313
ag38
ag93
aVJJ
p314
aVNNS
p315
ag12
ag17
ag13
ag69
ag158
ag244
ag13
ag13
asa(dp316
g3
(lp317
I4
aI5
aI3
asg5
(lp318
g38
aVIN
p319
ag27
aVNN
p320
aVIN
p321
ag27
aVVBN
p322
ag13
aVNN
p323
ag15
ag188
aVNN
p324
asa(dp325
g3
(lp326
I2
aI7
aI4
asg5
(lp327
g15
ag249
ag114
ag8
ag13
ag12
ag109
aVJJ
p328
ag13
ag10
aVVBN
p329
ag58
ag13
asa(dp330
g3
(lp331
I4
aI7
aI4
asg5
(lp332
g7
ag27
ag38
ag13
ag15
aVJJ
p333
ag13
aVVBZ
p334
aVRP
p335
ag276
aVNNS
p336
aVIN
p337
aVPRP
p338
ag37
ag188
asa(dp339
g3
(lp340
I5
aI6
aI2
asg5
(lp341
g15
ag58
ag13
ag283
aVJJ
p342
ag26
ag177
aVVBP
p343
ag177
ag37
ag38
ag13
ag118
asa(dp344
g3
(lp345
I3
aI5
aI4
asg5
(lp346
g10
ag38
ag13
ag321
ag8
aVJJ
p347
ag13
ag13
ag114
aVIN
p348
ag27
ag13
asa(dp349
g3
(lp350
I4
aI7
aI5
asg5
(lp351
g74
ag27
aVNNP
p352
ag13
ag30
ag27
ag13
ag12
ag27
aVNN
p353
ag13
ag15
ag13
ag12
ag36
ag13
asa(dp354
g3
(lp355
I5
aI6
aI4
asg5
(lp356
g227
ag22
ag14
ag13
ag107
ag13
aVIN
p357
aVJJ
p358
aVIN
p359
ag27
ag13
ag69
ag98
ag13
ag269
asa(dp360
g3
(lp361
I4
aI5
aI4
asg5
(lp362
VRB
p363
ag12
aVJJ
p364
ag39
ag38
ag202
ag315
ag12
ag13
ag7
ag27
ag53
ag13
asa(dp365
g3
(lp366
I4
aI6
aI5
asg5
(lp367
g38
aVDT
p368
ag13
ag75
ag93
ag22
ag13
ag25
aVVBZ
p369
aVRB
p370
ag69
ag8
aS'VBD'
p371
ag12
ag242
asa(dp372
g3
(lp373
I4
aI5
aI5
asg5
(lp374
g74
aVIN
p375
ag27
ag13
ag13
ag27
ag364
ag109
aVNNS
p376
aVNN
p377
aVNNS
p378
ag12
ag8
aVNNP
p379
asa(dp380
g3
(lp381
I3
aI6
aI4
asg5
(lp382
g15
aVVBD
p383
ag118
ag168
ag108
ag342
aVJJ
p384
ag13
ag109
ag131
ag114
ag49
aVJJ
p385
asa(dp386
g3
(lp387
I4
aI5
aI5
asg5
(lp388
g195
aVDT
p389
ag58
ag13
aVRB
p390
aVJJ
p391
ag14
aVRB
p392
aVJJ
p393
ag13
aVVB
p394
aVRP
p395
ag8
ag13
asa(dp396
g3
(lp397
I4
aI5
aI4
asg5
(lp398
g7
ag8
ag13
ag347
ag38
aVRP
p399
ag81
ag12
aVNNP
p400
ag15
ag383
ag13
ag13
asa(dp401
g3
(lp402
I5
aI6
aI3
asg5
(lp403
VVB
p404
aVRP
p405
ag177
aVVB
p406
aVJJ
p407
ag215
ag37
aVDT
p408
aVNN
p409
ag219
ag323
ag234
aVNN
p410
aVIN
p411
asa(dp412
g3
(lp413
I3
aI6
aI3
asg5
(lp414
g13
ag13
ag114
aVRB
p415
aVIN
p416
ag8
aVNN
p417
aVEX
p418
aVVBD
p419
ag15
aVRB
p420
aVNN
p421
asa(dp422
g3
(lp423
I4
aI4
aI3
asg5
(lp424
VJJ
p425
aVIN
p426
ag27
ag64
ag69
aVWDT
p427
aVNNS
p428
ag13
ag13
ag38
aVJJ
p429
asa(dp430
g3
(lp431
I3
aI6
aI4
asg5
(lp432
g38
ag13
ag13
ag15
ag13
ag115
aVRP
p433
ag13
aVNNS
p434
ag239
ag8
aVJJ
p435
aVNN
p436
asa(dp437
g3
(lp438
I4
aI6
aI3
asg5
(lp439
g15
aVJJ
p440
ag13
aVNN
p441
ag60
ag38
ag80
ag62
ag8
ag13
ag178
ag38
ag417
asa(dp442
g3
(lp443
I4
aI5
aI3
asg5
(lp444
g38
ag399
ag133
ag417
ag234
aVNN
p445
ag133
aVJJ
p446
ag38
ag223
ag195
aVVB
p447
asa(dp448
g3
(lp449
I5
aI6
aI4
asg5
(lp450
g74
ag27
ag241
ag49
ag115
aVRB
p451
ag8
ag13
ag12
ag13
ag13
ag30
ag292
ag27
ag13
asa(dp452
g3
(lp453
I3
aI6
aI4
asg5
(lp454
g38
aVVBZ
p455
ag278
ag151
ag235
aVVB
p456
ag12
ag85
aVNN
p457
ag7
ag8
aVJJR
p458
ag13
asa(dp459
g3
(lp460
I5
aI7
aI4
asg5
(lp461
g13
aVJJ
p462
aVRB
p463
ag98
aVNN
p464
aVRB
p465
aVVB
p466
aVNN
p467
aVWRB
p468
ag177
aVMD
p469
aVVB
p470
ag15
aVNN
p471
ag13
ag38
asa(dp472
g3
(lp473
I5
aI5
aI4
asg5
(lp474
g260
ag27
ag13
aVVBZ
p475
aVIN
p476
ag8
ag85
aVNNP
p477
aVNNS
p478
ag385
ag234
aVNN
p479
ag186
aVIN
p480
asa(dp481
g3
(lp482
I3
aI4
aI4
asg5
(lp483
g10
ag249
ag186
ag125
aVRB
p484
aVNNS
p485
ag458
ag13
ag27
ag13
ag269
asa(dp486
g3
(lp487
I3
aI4
aI3
asg5
(lp488
g10
aVNN
p489
aVNN
p490
aVDT
p491
ag13
ag24
aVVBN
p492
aVIN
p493
aVJJ
p494
ag256
asa(dp495
g3
(lp496
I3
aI4
aI3
asg5
(lp497
g15
ag38
ag118
ag186
ag8
aVJJ
p498
ag118
aVRB
p499
ag279
ag421
asa(dp500
g3
(lp501
I3
aI5
aI4
asg5
(lp502
g38
ag133
ag13
ag93
ag118
ag168
ag8
aVJJ
p503
ag465
aVVBZ
p504
ag133
aVNNS
p505
asa(dp506
g3
(lp507
I5
aI5
aI4
asg5
(lp508
g10
ag13
ag12
ag8
ag13
ag69
ag8
ag358
ag17
ag119
ag114
ag8
ag196
ag200
asa(dp509
g3
(lp510
I2
aI3
aI4
asg5
(lp511
VCD
p512
aVNNP
p513
ag383
ag416
ag203
ag7
ag27
ag13
ag457
asa(dp514
g3
(lp515
I5
aI4
aI4
asg5
(lp516
g13
ag108
ag27
ag13
ag13
ag15
ag140
aVNNP
p517
aVRB
p518
ag7
ag158
aVNNP
p519
ag109
asa(dp520
g3
(lp521
I3
aI5
aI4
asg5
(lp522
g512
ag13
ag53
ag15
ag261
aVVBZ
p523
ag8
aVNN
p524
ag234
ag125
ag319
aVIN
p525
asa(dp526
g3
(lp527
I3
aI6
aI3
asg5
(lp528
g35
aVPRP
p529
ag125
ag15
ag58
ag13
aVNNS
p530
ag169
aVNNS
p531
ag239
aVCD
p532
ag73
asa(dp533
g3
(lp534
I4
aI6
aI4
asg5
(lp535
g38
aVIN
p536
ag27
aVNNS
p537
ag15
ag13
ag216
ag8
ag13
ag13
ag38
ag536
ag8
ag13
asa(dp538
g3
(lp539
I3
aI6
aI3
asg5
(lp540
g159
ag13
ag13
ag10
ag262
aVVB
p541
ag428
aVVBP
p542
aVVBN
p543
ag38
ag41
aVNN
p544
asa(dp545
g3
(lp546
I3
aI5
aI3
asg5
(lp547
g178
ag8
aVJJ
p548
ag73
ag12
ag13
ag185
ag114
ag69
aVNNP
p549
ag434
asa(dp550
g3
(lp551
I4
aI5
aI4
asg5
(lp552
g10
ag114
ag12
ag434
ag38
ag279
ag70
aVJJ
p553
aVVB
p554
ag7
ag27
aVJJ
p555
ag537
asa(dp556
g3
(lp557
I3
aI6
aI4
asg5
(lp558
g10
ag243
aVNN
p559
ag15
aVIN
p560
ag24
aVNN
p561
ag169
ag114
ag261
aVIN
p562
ag338
ag37
asa(dp563
g3
(lp564
I3
aI5
aI4
asg5
(lp565
g74
ag27
ag187
ag147
ag27
ag38
ag180
aVNN
p566
ag47
ag8
ag58
ag13
asa(dp567
g3
(lp568
I3
aI6
aI4
asg5
(lp569
g15
ag38
ag118
aVNNS
p570
ag319
ag8
ag188
ag13
ag13
ag13
aVVBZ
p571
ag12
aVNN
p572
asa(dp573
g3
(lp574
I5
aI6
aI4
asg5
(lp575
g10
aVJJ
p576
ag13
ag12
ag58
ag10
ag358
aVVBZ
p577
aVPRP$
p578
ag13
ag13
ag7
ag8
aVJJ
p579
aVNN
p580
asa(dp581
g3
(lp582
I3
aI6
aI3
asg5
(lp583
g52
ag159
ag560
ag38
ag8
ag75
ag17
ag202
ag23
ag15
ag38
ag200
asa(dp584
g3
(lp585
I3
aI4
aI3
asg5
(lp586
g13
ag27
ag39
aVRB
p587
ag27
ag13
ag13
ag114
ag8
aVNN
p588
asa(dp589
g3
(lp590
I3
aI7
aI5
asg5
(lp591
g69
ag8
aVNNP
p592
ag234
aVIN
p593
ag27
aVVBZ
p594
ag12
ag13
ag13
ag8
ag58
ag13
ag116
ag13
asa(dp595
g3
(lp596
I3
aI5
aI3
asg5
(lp597
g10
ag17
aVNN
p598
ag530
aVNNP
p599
ag108
ag27
ag86
ag38
aVPRP
p600
aVJJR
p601
asa(dp602
g3
(lp603
I4
aI6
aI3
asg5
(lp604
g7
ag27
ag38
ag13
aVDT
p605
ag13
ag13
ag24
ag38
ag29
ag30
ag38
ag315
asa(dp606
g3
(lp607
I5
aI5
aI4
asg5
(lp608
g15
ag13
ag13
aVVBZ
p609
ag335
ag15
aVJJ
p610
ag14
ag28
aVIN
p611
aVIN
p612
ag427
ag279
aVVB
p613
asa(dp614
g3
(lp615
I3
aI5
aI5
asg5
(lp616
g69
ag109
ag505
ag10
ag447
aVVBZ
p617
aVVB
p618
ag505
ag321
ag27
aVNNP
p619
ag12
ag114
asa(dp620
g3
(lp621
I3
aI5
aI5
asg5
(lp622
g52
aVNN
p623
ag13
ag38
ag319
ag8
ag329
ag11
ag74
ag27
ag269
ag12
ag114
asa(dp624
g3
(lp625
I4
aI5
aI2
asg5
(lp626
g15
ag13
aVJJ
p627
ag249
ag73
ag348
ag8
aVNNP
p628
aVVB
p629
ag38
aVVB
p630
asa(dp631
g3
(lp632
I3
aI6
aI4
asg5
(lp633
g15
aVNNP
p634
ag524
ag114
ag108
ag27
ag13
ag12
ag269
aVWRB
p635
ag195
ag23
ag24
asa(dp636
g3
(lp637
I4
aI5
aI4
asg5
(lp638
g35
ag38
ag27
aVDT
p639
ag15
aVJJ
p640
ag13
aVRB
p641
aVIN
p642
ag30
ag87
aVIN
p643
ag256
asa(dp644
g3
(lp645
I4
aI6
aI3
asg5
(lp646
VNNP
p647
aVRB
p648
aVRB
p649
ag13
ag93
aVNNP
p650
ag315
ag14
ag106
ag23
ag465
ag599
ag263
asa(dp651
g3
(lp652
I4
aI6
aI4
asg5
(lp653
g15
ag196
ag58
ag13
ag15
ag13
ag504
ag133
aVJJ
p654
ag13
ag234
aVVBZ
p655
ag8
ag13
asa(dp656
g3
(lp657
I6
aI5
aI5
asg5
(lp658
g10
ag435
aVNN
p659
ag108
ag27
ag13
ag114
aVCC
p660
ag8
ag167
aVNN
p661
aVWRB
p662
aVPRP
p663
aVVBD
p664
ag279
ag23
asa(dp665
g3
(lp666
I4
aI6
aI4
asg5
(lp667
VIN
p668
ag8
ag38
ag13
ag114
ag13
ag536
ag13
ag279
ag13
ag7
ag8
ag38
ag58
asa(dp669
g3
(lp670
I4
aI5
aI4
asg5
(lp671
g260
ag27
aVNNP
p672
ag13
ag60
aVJJ
p673
ag433
ag276
aVJJ
p674
ag13
ag455
ag279
aVVB
p675
asa(dp676
g3
(lp677
I3
aI6
aI4
asg5
(lp678
g227
aVNN
p679
ag36
aVIN
p680
ag70
ag114
ag38
ag23
ag13
ag15
aVJJ
p681
ag58
ag13
asa(dp682
g3
(lp683
I3
aI4
aI3
asg5
(lp684
g38
ag14
ag38
aVJJ
p685
ag505
ag12
ag429
ag38
ag8
aVNNP
p686
asa(dp687
g3
(lp688
I2
aI5
aI5
asg5
(lp689
g38
aVRB
p690
ag93
ag275
ag428
ag27
ag256
ag15
aVNN
p691
ag319
ag276
aVNN
p692
asa(dp693
g3
(lp694
I3
aI3
aI4
asg5
(lp695
g15
ag560
ag541
ag52
aVNN
p696
ag38
ag570
ag319
ag328
ag109
asa.