(dp1
S'all'
p2
I19
sS'ale'
p3
I18
sS'yellow'
p4
I401
sS'skin'
p5
I297
sS'dish'
p6
I91
sS'kate'
p7
I174
sS'sashes'
p8
I281
sS'praises'
p9
I259
sS'patches'
p10
I244
sS'young'
p11
I404
sS'to'
p12
I351
sS'under'
p13
I363
sS'lord'
p14
I195
sS'sorry'
p15
I306
sS'brown'
p16
I57
sS'propagandism'
p17
I263
sS'parcel'
p18
I240
sS'fat'
p19
I109
sS'brows'
p20
I59
sS'minerals'
p21
I203
sS'cool'
p22
I80
sS'higgins'
p23
I150
sS'--'
p24
I7
sS'compassionately'
p25
I76
sS'round'
p26
I279
sS'past'
p27
I243
sS'go'
p28
I125
sS'street'
p29
I322
sS'perplexity'
p30
I248
sS'blue'
p31
I55
sS'will'
p32
I392
sS'what'
p33
I384
sS'stood'
p34
I318
sS'crust'
p35
I85
sS'fingers'
p36
I111
sS'waiting'
p37
I371
sS'conduct'
p38
I77
sS'neat'
p39
I216
sS'bird'
p40
I52
sS'told'
p41
I352
sS'others'
p42
I229
sS'alone'
p43
I21
sS'sing'
p44
I295
sS'along'
p45
I22
sS'great'
p46
I131
sS'strewn'
p47
I323
sS'shades'
p48
I286
sS'piercing'
p49
I253
sS'schooling'
p50
I284
sS'julia'
p51
I171
sS'testily'
p52
I335
sS'ask'
p53
I34
sS'standing'
p54
I314
sS'from'
p55
I119
sS'consumption'
p56
I78
sS'two'
p57
I362
sS'coldly'
p58
I72
sS'therefore'
p59
I344
sS'is'
p60
I166
sS'more'
p61
I205
sS'``'
p62
I11
sS'door'
p63
I95
sS'warm'
p64
I375
sS'must'
p65
I213
sS'me'
p66
I201
sS'fooling'
p67
I113
sS'word'
p68
I396
sS'this'
p69
I347
sS'gabriel'
p70
I122
sS'soul'
p71
I307
sS'can'
p72
I66
sS'making'
p73
I198
sS'beautiful'
p74
I42
sS'lock'
p75
I192
sS'tabinet'
p76
I329
sS'heard'
p77
I145
sS'waltz'
p78
I374
sS'skirt'
p79
I298
sS'!'
I0
sS'sir'
p80
I296
sS'end'
p81
I103
sS'browne'
p82
I58
sS'how'
p83
I157
sS'answer'
p84
I26
sS'intended'
p85
I163
sS'huge'
p86
I158
sS'slush'
p87
I299
sS'piano-stool'
p88
I251
sS'birthday'
p89
I53
sS'lay'
p90
I181
sS'such'
p91
I326
sS'a'
I12
sS'third'
p92
I346
sS'light'
p93
I184
sS'twisting'
p94
I361
sS'retort'
p95
I275
sS'departure'
p96
I88
sS'trembling'
p97
I358
sS'so'
p98
I303
sS'lined'
p99
I186
sS'shoes'
p100
I289
sS'office'
p101
I224
sS'over'
p102
I234
sS'wools'
p103
I395
sS'course'
p104
I82
sS'paper'
p105
I239
sS'through'
p106
I349
sS'crumbs'
p107
I84
sS'oughterard'
p108
I230
sS'cold'
p109
I71
sS'still'
p110
I316
sS'talkative'
p111
I332
sS'its'
p112
I168
sS'freckled'
p113
I117
sS'before'
p114
I47
sS'outer'
p115
I232
sS','
I6
sS'window'
p116
I393
sS'then'
p117
I342
sS'them'
p118
I341
sS'good'
p119
I127
sS'somebody'
p120
I304
sS'tucked'
p121
I360
sS'malins'
p122
I199
sS'stout'
p123
I320
sS'hands'
p124
I137
sS'not'
p125
I219
sS'now'
p126
I222
sS'hall'
p127
I134
sS'name'
p128
I215
sS'drop'
p129
I98
sS'did'
p130
I89
sS'went'
p131
I381
sS'square'
p132
I312
sS'foxes'
p133
I115
sS'goose'
p134
I130
sS'year'
p135
I400
sS'girl'
p136
I124
sS'out'
p137
I231
sS"'"
I1
sS'hastily'
p138
I138
sS'weighted'
p139
I379
sS'cause'
p140
I68
sS'red'
p141
I274
sS'little'
p142
I191
sS'quite'
p143
I268
sS'pleasant'
p144
I254
sS'extraordinary'
p145
I105
sS'reason'
p146
I272
sS'put'
p147
I266
sS'anyhow'
p148
I28
sS'hand'
p149
I136
sS'g'
I121
sS'could'
p150
I81
sS'pudding'
p151
I264
sS'drawing-room'
p152
I96
sS'first'
p153
I112
sS'scene'
p154
I283
sS'one'
p155
I226
sS'done'
p156
I94
sS'reached'
p157
I270
sS'miss'
p158
I204
sS'story'
p159
I319
sS'heads'
p160
I143
sS'silent'
p161
I293
sS'convent'
p162
I79
sS'their'
p163
I340
sS'kinder'
p164
I176
sS'white'
p165
I388
sS'listen'
p166
I188
sS'eyes'
p167
I106
sS'that'
p168
I338
sS'park'
p169
I241
sS'transverse'
p170
I356
sS'believe'
p171
I49
sS'herself'
p172
I149
sS'than'
p173
I336
sS'mercy'
p174
I202
sS'bed'
p175
I45
sS'spiced'
p176
I308
sS'were'
p177
I382
sS'and'
p178
I25
sS'uniforms'
p179
I365
sS'voices'
p180
I369
sS'tonight'
p181
I353
sS'buried'
p182
I60
sS'have'
p183
I139
sS'creased'
p184
I83
sS'any'
p185
I27
sS'snow'
p186
I302
sS'lit'
p187
I190
sS'also'
p188
I23
sS'mr.'
p189
I210
sS'squad'
p190
I310
sS'take'
p191
I331
sS'which'
p192
I387
sS'green'
p193
I132
sS'subject'
p194
I325
sS'ironically'
p195
I165
sS'sure'
p196
I327
sS'who'
p197
I389
sS'most'
p198
I208
sS'morkan'
p199
I206
sS'eight'
p200
I102
sS'peppered'
p201
I246
sS'nothing'
p202
I221
sS'why'
p203
I390
sS'face'
p204
I107
sS'aunt'
p205
I37
sS'fact'
p206
I108
sS'fussy'
p207
I120
sS'good-night'
p208
I128
sS'walking'
p209
I373
sS'shot'
p210
I291
sS'labels'
p211
I178
sS'earth'
p212
I101
sS'stairs'
p213
I313
sS'behind'
p214
I48
sS'buttons'
p215
I62
sS'only'
p216
I227
sS'going'
p217
I126
sS'black'
p218
I54
sS'piano'
p219
I250
sS'pointed'
p220
I255
sS'hope'
p221
I156
sS'do'
p222
I93
sS'his'
p223
I153
sS'listened'
p224
I189
sS'get'
p225
I123
sS'trees'
p226
I357
sS'him'
p227
I151
sS'held'
p228
I147
sS'morning'
p229
I207
sS'kerrigan'
p230
I175
sS'she'
p231
I287
sS'river'
p232
I277
sS'where'
p233
I386
sS'set'
p234
I285
sS'pane'
p235
I237
sS'signs'
p236
I292
sS'college'
p237
I73
sS'are'
p238
I30
sS'tender'
p239
I334
sS'close'
p240
I69
sS'arm'
p241
I31
sS'juliet'
p242
I172
sS'said'
p243
I280
sS'colours'
p244
I74
sS'outside'
p245
I233
sS'smallest'
p246
I300
sS'closed'
p247
I70
sS'between'
p248
I51
sS'drawn'
p249
I97
sS'we'
p250
I377
sS'amen'
p251
I24
sS'squads'
p252
I311
sS'come'
p253
I75
sS'received'
p254
I273
sS'according'
p255
I15
sS'asked'
p256
I35
sS'appeared'
p257
I29
sS'overcoat'
p258
I235
sS'walk'
p259
I372
sS'table'
p260
I330
sS'banisters'
p261
I39
sS'beef'
p262
I46
sS'parsley'
p263
I242
sS'.'
I8
sS'lancers'
p264
I180
sS'mary'
p265
I200
sS'trinity'
p266
I359
sS'life'
p267
I183
sS'c.'
p268
I64
sS'understand'
p269
I364
sS'worked'
p270
I397
sS'westward'
p271
I383
sS'present'
p272
I260
sS'look'
p273
I194
sS'air'
p274
I17
sS"n't"
p275
I214
sS'abrupt'
p276
I14
sS'voice'
p277
I368
sS'pound'
p278
I257
sS'almost'
p279
I20
sS'dublin'
p280
I99
sS'sincere'
p281
I294
sS'it'
p282
I167
sS'someone'
p283
I305
sS'in'
p284
I162
sS'if'
p285
I161
sS"d'arcy"
p286
I86
sS'bottles'
p287
I56
sS'frank-mannered'
p288
I116
sS'perhaps'
p289
I247
sS'make'
p290
I197
sS'beside'
p291
I50
sS'tapped'
p292
I333
sS'week'
p293
I378
sS'upon'
p294
I367
sS'romeo'
p295
I278
sS'statue'
p296
I315
sS'shortly'
p297
I290
sS'i'
I160
sS'well'
p298
I380
sS'person'
p299
I249
sS'stillness'
p300
I317
sS'mother'
p301
I209
sS'the'
p302
I339
sS'raving'
p303
I269
sS'they'
p304
I345
sS'just'
p305
I173
sS'quarters'
p306
I267
sS'thanks'
p307
I337
sS'yes'
p308
I402
sS'satin'
p309
I282
sS'note'
p310
I220
sS'ham'
p311
I135
sS'had'
p312
I133
sS'surprised'
p313
I328
sS'know'
p314
I177
sS'lady'
p315
I179
sS'prominent'
p316
I262
sS'like'
p317
I185
sS'night'
p318
I217
sS'hung'
p319
I159
sS'tower'
p320
I355
sS'because'
p321
I43
sS'people'
p322
I245
sS'towards'
p323
I354
sS'candle'
p324
I67
sS'for'
p325
I114
sS'purple'
p326
I265
sS'?'
I10
sS'be'
p327
I41
sS'power'
p328
I258
sS'strained'
p329
I321
sS'murdered'
p330
I212
sS'by'
p331
I63
sS'on'
p332
I225
sS'about'
p333
I13
sS'would'
p334
I398
sS'linger'
p335
I187
sS'of'
p336
I223
sS'wrinkled'
p337
I399
sS'own'
p338
I236
sS'into'
p339
I164
sS'three'
p340
I348
sS'right'
p341
I276
sS'heated'
p342
I146
sS'your'
p343
I405
sS'her'
p344
I148
sS'there'
p345
I343
sS'frill'
p346
I118
sS'long'
p347
I193
sS'jane'
p348
I169
sS':'
I9
sS'was'
p349
I376
sS'head'
p350
I142
sS'himself'
p351
I152
sS'waistcoat'
p352
I370
sS'enough'
p353
I104
sS'becoming'
p354
I44
sS'but'
p355
I61
sS'mulberry'
p356
I211
sS'hear'
p357
I144
sS'pantry'
p358
I238
sS'ear'
p359
I100
sS'with'
p360
I394
sS'he'
p361
I141
sS'made'
p362
I196
sS'arranged'
p363
I32
sS'princes'
p364
I261
sS'sprigs'
p365
I309
sS'up'
p366
I366
sS'distance'
p367
I92
sS'shin'
p368
I288
sS'stripped'
p369
I324
sS'fellow'
p370
I110
sS"''"
p371
I2
sS'as'
p372
I33
sS'at'
p373
I36
sS'goodness'
p374
I129
sS'home'
p375
I155
sS"'go"
p376
I3
sS'balcony'
p377
I38
sS'smiling'
p378
I301
sS'no'
p379
I218
sS'when'
p380
I385
sS'bartell'
p381
I40
sS'other'
p382
I228
sS'holding'
p383
I154
sS'you'
p384
I403
sS'really'
p385
I271
sS'poor'
p386
I256
sS'picture'
p387
I252
sS"'s"
p388
I5
sS'lend'
p389
I182
sS'journey'
p390
I170
sS"'m"
p391
I4
sS'daly'
p392
I87
sS'died'
p393
I90
sS'ago'
p394
I16
sS'wife'
p395
I391
sS'came'
p396
I65
sS'time'
p397
I350
sS'having'
p398
I140
s.